; ModuleID = '32/1654.c'
source_filename = "32/1654.c"
target datalayout = "e-m:e-p270:32:32-p271:32:32-p272:64:64-i64:64-f80:128-n8:16:32:64-S128"
target triple = "x86_64-pc-linux-gnu"

@.str = private unnamed_addr constant [3 x i8] c"%d\00", align 1
@.str.1 = private unnamed_addr constant [3 x i8] c"%s\00", align 1

; Function Attrs: noinline nounwind uwtable
define dso_local void @xj(i8* %0, i8* %1) #0 {
  %3 = alloca i8*, align 8
  %4 = alloca i8*, align 8
  %5 = alloca i32, align 4
  %6 = alloca i32, align 4
  %7 = alloca [100 x i8], align 16
  %8 = alloca [100 x i8], align 16
  store i8* %0, i8** %3, align 8
  store i8* %1, i8** %4, align 8
  %9 = bitcast [100 x i8]* %7 to i8*
  call void @llvm.memset.p0i8.i64(i8* align 16 %9, i8 0, i64 100, i1 false)
  store i32 0, i32* %5, align 4
  br label %10

10:                                               ; preds = %17, %2
  %11 = load i32, i32* %5, align 4
  %12 = icmp slt i32 %11, 100
  br i1 %12, label %13, label %20

13:                                               ; preds = %10
  %14 = load i32, i32* %5, align 4
  %15 = sext i32 %14 to i64
  %16 = getelementptr inbounds [100 x i8], [100 x i8]* %8, i64 0, i64 %15
  store i8 48, i8* %16, align 1
  br label %17

17:                                               ; preds = %13
  %18 = load i32, i32* %5, align 4
  %19 = add nsw i32 %18, 1
  store i32 %19, i32* %5, align 4
  br label %10

20:                                               ; preds = %10
  store i32 0, i32* %5, align 4
  br label %21

21:                                               ; preds = %42, %20
  %22 = load i32, i32* %5, align 4
  %23 = sext i32 %22 to i64
  %24 = load i8*, i8** %4, align 8
  %25 = call i64 @strlen(i8* %24) #4
  %26 = icmp ult i64 %23, %25
  br i1 %26, label %27, label %45

27:                                               ; preds = %21
  %28 = load i8*, i8** %4, align 8
  %29 = load i32, i32* %5, align 4
  %30 = sext i32 %29 to i64
  %31 = getelementptr inbounds i8, i8* %28, i64 %30
  %32 = load i8, i8* %31, align 1
  %33 = load i32, i32* %5, align 4
  %34 = sext i32 %33 to i64
  %35 = load i8*, i8** %3, align 8
  %36 = call i64 @strlen(i8* %35) #4
  %37 = add i64 %34, %36
  %38 = load i8*, i8** %4, align 8
  %39 = call i64 @strlen(i8* %38) #4
  %40 = sub i64 %37, %39
  %41 = getelementptr inbounds [100 x i8], [100 x i8]* %8, i64 0, i64 %40
  store i8 %32, i8* %41, align 1
  br label %42

42:                                               ; preds = %27
  %43 = load i32, i32* %5, align 4
  %44 = add nsw i32 %43, 1
  store i32 %44, i32* %5, align 4
  br label %21

45:                                               ; preds = %21
  %46 = load i8*, i8** %3, align 8
  %47 = call i64 @strlen(i8* %46) #4
  %48 = sub i64 %47, 1
  %49 = trunc i64 %48 to i32
  store i32 %49, i32* %5, align 4
  br label %50

50:                                               ; preds = %103, %45
  %51 = load i32, i32* %5, align 4
  %52 = icmp sge i32 %51, 0
  br i1 %52, label %53, label %106

53:                                               ; preds = %50
  %54 = load i8*, i8** %3, align 8
  %55 = load i32, i32* %5, align 4
  %56 = sext i32 %55 to i64
  %57 = getelementptr inbounds i8, i8* %54, i64 %56
  %58 = load i8, i8* %57, align 1
  %59 = sext i8 %58 to i32
  %60 = add nsw i32 %59, 10
  %61 = load i32, i32* %5, align 4
  %62 = sext i32 %61 to i64
  %63 = getelementptr inbounds [100 x i8], [100 x i8]* %8, i64 0, i64 %62
  %64 = load i8, i8* %63, align 1
  %65 = sext i8 %64 to i32
  %66 = sub nsw i32 %60, %65
  %67 = trunc i32 %66 to i8
  %68 = load i32, i32* %5, align 4
  %69 = sext i32 %68 to i64
  %70 = getelementptr inbounds [100 x i8], [100 x i8]* %7, i64 0, i64 %69
  store i8 %67, i8* %70, align 1
  %71 = load i32, i32* %5, align 4
  %72 = sub nsw i32 %71, 1
  %73 = icmp sge i32 %72, 0
  br i1 %73, label %74, label %91

74:                                               ; preds = %53
  %75 = load i32, i32* %5, align 4
  %76 = sext i32 %75 to i64
  %77 = getelementptr inbounds [100 x i8], [100 x i8]* %7, i64 0, i64 %76
  %78 = load i8, i8* %77, align 1
  %79 = sext i8 %78 to i32
  %80 = sdiv i32 %79, 10
  %81 = sub nsw i32 %80, 1
  %82 = load i8*, i8** %3, align 8
  %83 = load i32, i32* %5, align 4
  %84 = sub nsw i32 %83, 1
  %85 = sext i32 %84 to i64
  %86 = getelementptr inbounds i8, i8* %82, i64 %85
  %87 = load i8, i8* %86, align 1
  %88 = sext i8 %87 to i32
  %89 = add nsw i32 %88, %81
  %90 = trunc i32 %89 to i8
  store i8 %90, i8* %86, align 1
  br label %91

91:                                               ; preds = %74, %53
  %92 = load i32, i32* %5, align 4
  %93 = sext i32 %92 to i64
  %94 = getelementptr inbounds [100 x i8], [100 x i8]* %7, i64 0, i64 %93
  %95 = load i8, i8* %94, align 1
  %96 = sext i8 %95 to i32
  %97 = srem i32 %96, 10
  %98 = add nsw i32 %97, 48
  %99 = trunc i32 %98 to i8
  %100 = load i32, i32* %5, align 4
  %101 = sext i32 %100 to i64
  %102 = getelementptr inbounds [100 x i8], [100 x i8]* %7, i64 0, i64 %101
  store i8 %99, i8* %102, align 1
  br label %103

103:                                              ; preds = %91
  %104 = load i32, i32* %5, align 4
  %105 = add nsw i32 %104, -1
  store i32 %105, i32* %5, align 4
  br label %50

106:                                              ; preds = %50
  store i32 0, i32* %5, align 4
  br label %107

107:                                              ; preds = %122, %106
  %108 = load i32, i32* %5, align 4
  %109 = sext i32 %108 to i64
  %110 = load i8*, i8** %3, align 8
  %111 = call i64 @strlen(i8* %110) #4
  %112 = icmp ult i64 %109, %111
  br i1 %112, label %113, label %125

113:                                              ; preds = %107
  %114 = load i32, i32* %5, align 4
  %115 = sext i32 %114 to i64
  %116 = getelementptr inbounds [100 x i8], [100 x i8]* %7, i64 0, i64 %115
  %117 = load i8, i8* %116, align 1
  %118 = sext i8 %117 to i32
  %119 = icmp ne i32 %118, 48
  br i1 %119, label %120, label %121

120:                                              ; preds = %113
  br label %125

121:                                              ; preds = %113
  br label %122

122:                                              ; preds = %121
  %123 = load i32, i32* %5, align 4
  %124 = add nsw i32 %123, 1
  store i32 %124, i32* %5, align 4
  br label %107

125:                                              ; preds = %120, %107
  %126 = load i32, i32* %5, align 4
  store i32 %126, i32* %6, align 4
  br label %127

127:                                              ; preds = %140, %125
  %128 = load i32, i32* %6, align 4
  %129 = sext i32 %128 to i64
  %130 = load i8*, i8** %3, align 8
  %131 = call i64 @strlen(i8* %130) #4
  %132 = icmp ult i64 %129, %131
  br i1 %132, label %133, label %143

133:                                              ; preds = %127
  %134 = load i32, i32* %6, align 4
  %135 = sext i32 %134 to i64
  %136 = getelementptr inbounds [100 x i8], [100 x i8]* %7, i64 0, i64 %135
  %137 = load i8, i8* %136, align 1
  %138 = sext i8 %137 to i32
  %139 = call i32 @putchar(i32 %138)
  br label %140

140:                                              ; preds = %133
  %141 = load i32, i32* %6, align 4
  %142 = add nsw i32 %141, 1
  store i32 %142, i32* %6, align 4
  br label %127

143:                                              ; preds = %127
  %144 = call i32 @putchar(i32 10)
  ret void
}

; Function Attrs: argmemonly nounwind willreturn
declare void @llvm.memset.p0i8.i64(i8* nocapture writeonly, i8, i64, i1 immarg) #1

; Function Attrs: nounwind readonly
declare dso_local i64 @strlen(i8*) #2

declare dso_local i32 @putchar(i32) #3

; Function Attrs: noinline nounwind uwtable
define dso_local void @main() #0 {
  %1 = alloca i32, align 4
  %2 = alloca i32, align 4
  %3 = alloca [100 x i8], align 16
  %4 = alloca [100 x i8], align 16
  %5 = call i32 (i8*, ...) @__isoc99_scanf(i8* getelementptr inbounds ([3 x i8], [3 x i8]* @.str, i64 0, i64 0), i32* %1)
  store i32 0, i32* %2, align 4
  br label %6

6:                                                ; preds = %17, %0
  %7 = load i32, i32* %2, align 4
  %8 = load i32, i32* %1, align 4
  %9 = icmp slt i32 %7, %8
  br i1 %9, label %10, label %20

10:                                               ; preds = %6
  %11 = getelementptr inbounds [100 x i8], [100 x i8]* %3, i64 0, i64 0
  %12 = call i32 (i8*, ...) @__isoc99_scanf(i8* getelementptr inbounds ([3 x i8], [3 x i8]* @.str.1, i64 0, i64 0), i8* %11)
  %13 = getelementptr inbounds [100 x i8], [100 x i8]* %4, i64 0, i64 0
  %14 = call i32 (i8*, ...) @__isoc99_scanf(i8* getelementptr inbounds ([3 x i8], [3 x i8]* @.str.1, i64 0, i64 0), i8* %13)
  %15 = getelementptr inbounds [100 x i8], [100 x i8]* %3, i64 0, i64 0
  %16 = getelementptr inbounds [100 x i8], [100 x i8]* %4, i64 0, i64 0
  call void @xj(i8* %15, i8* %16)
  br label %17

17:                                               ; preds = %10
  %18 = load i32, i32* %2, align 4
  %19 = add nsw i32 %18, 1
  store i32 %19, i32* %2, align 4
  br label %6

20:                                               ; preds = %6
  ret void
}

declare dso_local i32 @__isoc99_scanf(i8*, ...) #3


!llvm.module.flags = !{!0}
!llvm.ident = !{!1}

!0 = !{i32 1, !"wchar_size", i32 4}
!1 = !{!"clang version 10.0.0-4ubuntu1 "}
